target datalayout = "e-m:e-p270:32:32-p271:32:32-p272:64:64-i64:64-i128:128-f80:128-n8:16:32:64-S128"
target triple = "x86_64-pc-linux-gnu"

%struct.tsi_handshaker_result = type { ptr }
%struct.tsi_handshaker_result_vtable = type { ptr, ptr, ptr, ptr, ptr, ptr }

; Function Attrs: mustprogress uwtable
define noundef i32 @_Z34tsi_handshaker_result_extract_peerPK21tsi_handshaker_resultP8tsi_peer(ptr noundef %0, ptr noundef %1) #5 {
  %3 = alloca i32, align 4
  %4 = alloca ptr, align 8
  %5 = alloca ptr, align 8
  store ptr %0, ptr %4, align 8, !tbaa !58
  store ptr %1, ptr %5, align 8, !tbaa !38
  %6 = load ptr, ptr %4, align 8, !tbaa !58
  %7 = icmp eq ptr %6, null
  br i1 %7, label %16, label %8

8:                                                ; preds = %2
  %9 = load ptr, ptr %4, align 8, !tbaa !58
  %10 = getelementptr inbounds nuw %struct.tsi_handshaker_result, ptr %9, i32 0, i32 0
  %11 = load ptr, ptr %10, align 8, !tbaa !60
  %12 = icmp eq ptr %11, null
  br i1 %12, label %16, label %13

13:                                               ; preds = %8
  %14 = load ptr, ptr %5, align 8, !tbaa !38
  %15 = icmp eq ptr %14, null
  br i1 %15, label %16, label %17

16:                                               ; preds = %13, %8, %2
  store i32 2, ptr %3, align 4
  br label %35

17:                                               ; preds = %13
  %18 = load ptr, ptr %5, align 8, !tbaa !38
  call void @llvm.memset.p0.i64(ptr align 8 %18, i8 0, i64 16, i1 false)
  %19 = load ptr, ptr %4, align 8, !tbaa !58
  %20 = getelementptr inbounds nuw %struct.tsi_handshaker_result, ptr %19, i32 0, i32 0
  %21 = load ptr, ptr %20, align 8, !tbaa !60
  %22 = getelementptr inbounds nuw %struct.tsi_handshaker_result_vtable, ptr %21, i32 0, i32 0
  %23 = load ptr, ptr %22, align 8, !tbaa !63
  %24 = icmp eq ptr %23, null
  br i1 %24, label %25, label %26

25:                                               ; preds = %17
  store i32 6, ptr %3, align 4
  br label %35

26:                                               ; preds = %17
  %27 = load ptr, ptr %4, align 8, !tbaa !58
  %28 = getelementptr inbounds nuw %struct.tsi_handshaker_result, ptr %27, i32 0, i32 0
  %29 = load ptr, ptr %28, align 8, !tbaa !60
  %30 = getelementptr inbounds nuw %struct.tsi_handshaker_result_vtable, ptr %29, i32 0, i32 0
  %31 = load ptr, ptr %30, align 8, !tbaa !63
  %32 = load ptr, ptr %4, align 8, !tbaa !58
  %33 = load ptr, ptr %5, align 8, !tbaa !38
  %34 = call noundef i32 %31(ptr noundef %32, ptr noundef %33)
  store i32 %34, ptr %3, align 4
  br label %35

35:                                               ; preds = %26, %25, %16
  %36 = load i32, ptr %3, align 4
  ret i32 %36
}