; Function Attrs: mustprogress uwtable
define noundef i32 @_Z34tsi_handshaker_result_extract_peerPK21tsi_handshaker_resultP8tsi_peer(ptr noundef %0, ptr noundef %1) local_unnamed_addr #4 {
  %3 = icmp eq ptr %0, null
  br i1 %3, label %14, label %4

4:                                                ; preds = %2
  %5 = load ptr, ptr %0, align 8, !tbaa !37
  %6 = icmp eq ptr %5, null
  %7 = icmp eq ptr %1, null
  %or.cond = or i1 %7, %6
  br i1 %or.cond, label %14, label %8

8:                                                ; preds = %4
  tail call void @llvm.memset.p0.i64(ptr noundef nonnull align 8 dereferenceable(16) %1, i8 0, i64 16, i1 false)
  %9 = load ptr, ptr %0, align 8, !tbaa !37
  %10 = load ptr, ptr %9, align 8, !tbaa !40
  %11 = icmp eq ptr %10, null
  br i1 %11, label %14, label %12

12:                                               ; preds = %8
  %13 = tail call noundef i32 %10(ptr noundef nonnull %0, ptr noundef nonnull %1)
  br label %14

14:                                               ; preds = %8, %2, %4, %12
  %.0 = phi i32 [ %13, %12 ], [ 2, %4 ], [ 2, %2 ], [ 6, %8 ]
  ret i32 %.0
}